target datalayout = "e-m:e-p270:32:32-p271:32:32-p272:64:64-i64:64-i128:128-f80:128-n8:16:32:64-S128"
target triple = "x86_64-pc-linux-gnu"

%class.Klass = type <{ %class.Metadata, i32, i32, i32, i32, ptr, ptr, ptr, [8 x ptr], %class.OopHandle, ptr, ptr, ptr, ptr, ptr, i32, %class.AccessFlags, i64, i64, i8, i8, i16, i16, [2 x i8], i32, [4 x i8] }>
%class.Metadata = type { ptr }
%class.OopHandle = type { ptr }
%class.AccessFlags = type { i32 }

; Function Attrs: mustprogress nounwind uwtable
define linkonce_odr hidden noundef ptr @_ZNK5Klass5superEv(ptr noundef nonnull align 8 dereferenceable(196) %0) #1 comdat align 2 {
  %2 = alloca ptr, align 8
  store ptr %0, ptr %2, align 8
  %3 = load ptr, ptr %2, align 8
  %4 = getelementptr inbounds %class.Klass, ptr %3, i32 0, i32 10
  %5 = load ptr, ptr %4, align 8
  ret ptr %5
}

; Function Attrs: mustprogress nounwind uwtable
define hidden noundef zeroext i1 @_ZNK5Klass14is_subclass_ofEPKS_(ptr noundef nonnull align 8 dereferenceable(196) %0, ptr noundef %1) #1 align 2 {
  %3 = alloca i1, align 1
  %4 = alloca ptr, align 8
  %5 = alloca ptr, align 8
  %6 = alloca ptr, align 8
  store ptr %0, ptr %4, align 8
  store ptr %1, ptr %5, align 8
  %7 = load ptr, ptr %4, align 8
  %8 = load ptr, ptr %5, align 8
  %9 = icmp eq ptr %7, %8
  br i1 %9, label %10, label %11

10:                                               ; preds = %2
  store i1 true, ptr %3, align 1
  br label %25

11:                                               ; preds = %2
  %12 = call noundef ptr @_ZNK5Klass5superEv(ptr noundef nonnull align 8 dereferenceable(196) %7)
  store ptr %12, ptr %6, align 8
  br label %13

13:                                               ; preds = %21, %11
  %14 = load ptr, ptr %6, align 8
  %15 = icmp ne ptr %14, null
  br i1 %15, label %16, label %24

16:                                               ; preds = %13
  %17 = load ptr, ptr %6, align 8
  %18 = load ptr, ptr %5, align 8
  %19 = icmp eq ptr %17, %18
  br i1 %19, label %20, label %21

20:                                               ; preds = %16
  store i1 true, ptr %3, align 1
  br label %25

21:                                               ; preds = %16
  %22 = load ptr, ptr %6, align 8
  %23 = call noundef ptr @_ZNK5Klass5superEv(ptr noundef nonnull align 8 dereferenceable(196) %22)
  store ptr %23, ptr %6, align 8
  br label %13, !llvm.loop !8

24:                                               ; preds = %13
  store i1 false, ptr %3, align 1
  br label %25

25:                                               ; preds = %24, %20, %10
  %26 = load i1, ptr %3, align 1
  ret i1 %26
}