; Function Attrs: mustprogress nofree norecurse nosync nounwind willreturn memory(read, inaccessiblemem: none) uwtable
define hidden noundef zeroext i1 @_ZNK5Klass14is_subclass_ofEPKS_(ptr noundef nonnull readonly align 8 dereferenceable(196) %0, ptr noundef readnone %1) local_unnamed_addr #4 align 2 {
  %3 = icmp eq ptr %0, %1
  br i1 %3, label %.loopexit, label %.preheader

.preheader:                                       ; preds = %2, %.preheader
  %.pn = phi ptr [ %.0, %.preheader ], [ %0, %2 ]
  %.0.in = getelementptr inbounds i8, ptr %.pn, i64 120
  %.0 = load ptr, ptr %.0.in, align 8
  %.not.not = icmp ne ptr %.0, null
  %4 = icmp ne ptr %.0, %1
  %or.cond.not = and i1 %4, %.not.not
  br i1 %or.cond.not, label %.preheader, label %.loopexit, !llvm.loop !9

.loopexit:                                        ; preds = %.preheader, %2
  %.07 = phi i1 [ true, %2 ], [ %.not.not, %.preheader ]
  ret i1 %.07
}